; Function Attrs: uwtable
define noundef i32 @_ZThn16_N21SelectionFilterPlugin15getRequirementsEPK7QAction(ptr noundef %0, ptr noundef %1) unnamed_addr #12 align 2 {
  %3 = load ptr, ptr %0, align 8
  %4 = getelementptr inbounds i8, ptr %3, i64 144
  %5 = load ptr, ptr %4, align 8
  %6 = tail call noundef i32 %5(ptr noundef nonnull align 8 dereferenceable(64) %0, ptr noundef %1)
  switch i32 %6, label %9 [
    i32 21, label %_ZN21SelectionFilterPlugin15getRequirementsEPK7QAction.exit
    i32 22, label %_ZN21SelectionFilterPlugin15getRequirementsEPK7QAction.exit
    i32 5, label %_ZN21SelectionFilterPlugin15getRequirementsEPK7QAction.exit
    i32 20, label %_ZN21SelectionFilterPlugin15getRequirementsEPK7QAction.exit
    i32 19, label %7
    i32 3, label %8
  ]

7:                                                ; preds = %2
  br label %_ZN21SelectionFilterPlugin15getRequirementsEPK7QAction.exit

8:                                                ; preds = %2
  br label %_ZN21SelectionFilterPlugin15getRequirementsEPK7QAction.exit

9:                                                ; preds = %2
  br label %_ZN21SelectionFilterPlugin15getRequirementsEPK7QAction.exit

_ZN21SelectionFilterPlugin15getRequirementsEPK7QAction.exit: ; preds = %2, %2, %2, %2, %7, %8, %9
  %.0.i = phi i32 [ 0, %9 ], [ 64, %8 ], [ 393216, %7 ], [ 262144, %2 ], [ 262144, %2 ], [ 262144, %2 ], [ 262144, %2 ]
  ret i32 %.0.i
}